target datalayout = "e-m:e-p270:32:32-p271:32:32-p272:64:64-i64:64-i128:128-f80:128-n8:16:32:64-S128"
target triple = "x86_64-pc-linux-gnu"

@.str.39 = private unnamed_addr constant [17 x i8] c"CVodeGetNumSteps\00", align 1
@.str.40 = private unnamed_addr constant [18 x i8] c"CVodeGetLastOrder\00", align 1
@.str.41 = private unnamed_addr constant [17 x i8] c"CVodeGetLastStep\00", align 1
@.str.42 = private unnamed_addr constant [23 x i8] c"%8.3e %2d  %8.3e %5ld\0A\00", align 1
@.str.43 = private unnamed_addr constant [48 x i8] c"                                Solution       \00", align 1
@.str.44 = private unnamed_addr constant [9 x i8] c"%12.4e \0A\00", align 1
@stderr = external global ptr, align 8
@.str.67 = private unnamed_addr constant [55 x i8] c"\0ASUNDIALS_ERROR: %s() failed - returned NULL pointer\0A\0A\00", align 1
@.str.68 = private unnamed_addr constant [48 x i8] c"\0ASUNDIALS_ERROR: %s() failed with retval = %d\0A\0A\00", align 1
@.str.69 = private unnamed_addr constant [53 x i8] c"\0AMEMORY_ERROR: %s() failed - returned NULL pointer\0A\0A\00", align 1

; Function Attrs: nounwind uwtable
define internal i32 @check_retval(ptr noundef %0, ptr noundef %1, i32 noundef %2) #0 {
  %4 = alloca i32, align 4
  %5 = alloca ptr, align 8
  %6 = alloca ptr, align 8
  %7 = alloca i32, align 4
  %8 = alloca ptr, align 8
  %9 = alloca i32, align 4
  store ptr %0, ptr %5, align 8, !tbaa !11
  store ptr %1, ptr %6, align 8, !tbaa !29
  store i32 %2, ptr %7, align 4, !tbaa !4
  call void @llvm.lifetime.start.p0(i64 8, ptr %8) #8
  %10 = load i32, ptr %7, align 4, !tbaa !4
  %11 = icmp eq i32 %10, 0
  br i1 %11, label %12, label %19

12:                                               ; preds = %3
  %13 = load ptr, ptr %5, align 8, !tbaa !11
  %14 = icmp eq ptr %13, null
  br i1 %14, label %15, label %19

15:                                               ; preds = %12
  %16 = load ptr, ptr @stderr, align 8, !tbaa !31
  %17 = load ptr, ptr %6, align 8, !tbaa !29
  %18 = call i32 (ptr, ptr, ...) @fprintf(ptr noundef %16, ptr noundef @.str.67, ptr noundef %17) #8
  store i32 1, ptr %4, align 4
  store i32 1, ptr %9, align 4
  br label %47

19:                                               ; preds = %12, %3
  %20 = load i32, ptr %7, align 4, !tbaa !4
  %21 = icmp eq i32 %20, 1
  br i1 %21, label %22, label %34

22:                                               ; preds = %19
  %23 = load ptr, ptr %5, align 8, !tbaa !11
  store ptr %23, ptr %8, align 8, !tbaa !16
  %24 = load ptr, ptr %8, align 8, !tbaa !16
  %25 = load i32, ptr %24, align 4, !tbaa !4
  %26 = icmp slt i32 %25, 0
  br i1 %26, label %27, label %33

27:                                               ; preds = %22
  %28 = load ptr, ptr @stderr, align 8, !tbaa !31
  %29 = load ptr, ptr %6, align 8, !tbaa !29
  %30 = load ptr, ptr %8, align 8, !tbaa !16
  %31 = load i32, ptr %30, align 4, !tbaa !4
  %32 = call i32 (ptr, ptr, ...) @fprintf(ptr noundef %28, ptr noundef @.str.68, ptr noundef %29, i32 noundef %31) #8
  store i32 1, ptr %4, align 4
  store i32 1, ptr %9, align 4
  br label %47

33:                                               ; preds = %22
  br label %45

34:                                               ; preds = %19
  %35 = load i32, ptr %7, align 4, !tbaa !4
  %36 = icmp eq i32 %35, 2
  br i1 %36, label %37, label %44

37:                                               ; preds = %34
  %38 = load ptr, ptr %5, align 8, !tbaa !11
  %39 = icmp eq ptr %38, null
  br i1 %39, label %40, label %44

40:                                               ; preds = %37
  %41 = load ptr, ptr @stderr, align 8, !tbaa !31
  %42 = load ptr, ptr %6, align 8, !tbaa !29
  %43 = call i32 (ptr, ptr, ...) @fprintf(ptr noundef %41, ptr noundef @.str.69, ptr noundef %42) #8
  store i32 1, ptr %4, align 4
  store i32 1, ptr %9, align 4
  br label %47

44:                                               ; preds = %37, %34
  br label %45

45:                                               ; preds = %44, %33
  br label %46

46:                                               ; preds = %45
  store i32 0, ptr %4, align 4
  store i32 1, ptr %9, align 4
  br label %47

47:                                               ; preds = %46, %40, %27, %15
  call void @llvm.lifetime.end.p0(i64 8, ptr %8) #8
  %48 = load i32, ptr %4, align 4
  ret i32 %48
}

; Function Attrs: nounwind uwtable
define internal void @PrintOutput(ptr noundef %0, double noundef %1, ptr noundef %2) #0 {
  %4 = alloca ptr, align 8
  %5 = alloca double, align 8
  %6 = alloca ptr, align 8
  %7 = alloca i64, align 8
  %8 = alloca i32, align 4
  %9 = alloca i32, align 4
  %10 = alloca double, align 8
  store ptr %0, ptr %4, align 8, !tbaa !11
  store double %1, ptr %5, align 8, !tbaa !26
  store ptr %2, ptr %6, align 8, !tbaa !12
  call void @llvm.lifetime.start.p0(i64 8, ptr %7) #8
  call void @llvm.lifetime.start.p0(i64 4, ptr %8) #8
  call void @llvm.lifetime.start.p0(i64 4, ptr %9) #8
  call void @llvm.lifetime.start.p0(i64 8, ptr %10) #8
  %11 = load ptr, ptr %4, align 8, !tbaa !11
  %12 = call i32 @CVodeGetNumSteps(ptr noundef %11, ptr noundef %7)
  store i32 %12, ptr %9, align 4, !tbaa !4
  %13 = call i32 @check_retval(ptr noundef %9, ptr noundef @.str.39, i32 noundef 1)
  %14 = load ptr, ptr %4, align 8, !tbaa !11
  %15 = call i32 @CVodeGetLastOrder(ptr noundef %14, ptr noundef %8)
  store i32 %15, ptr %9, align 4, !tbaa !4
  %16 = call i32 @check_retval(ptr noundef %9, ptr noundef @.str.40, i32 noundef 1)
  %17 = load ptr, ptr %4, align 8, !tbaa !11
  %18 = call i32 @CVodeGetLastStep(ptr noundef %17, ptr noundef %10)
  store i32 %18, ptr %9, align 4, !tbaa !4
  %19 = call i32 @check_retval(ptr noundef %9, ptr noundef @.str.41, i32 noundef 1)
  %20 = load double, ptr %5, align 8, !tbaa !26
  %21 = load i32, ptr %8, align 4, !tbaa !4
  %22 = load double, ptr %10, align 8, !tbaa !26
  %23 = load i64, ptr %7, align 8, !tbaa !33
  %24 = call i32 (ptr, ...) @printf(ptr noundef @.str.42, double noundef %20, i32 noundef %21, double noundef %22, i64 noundef %23)
  %25 = call i32 (ptr, ...) @printf(ptr noundef @.str.43)
  %26 = load ptr, ptr %6, align 8, !tbaa !12
  %27 = call double @N_VMaxNorm(ptr noundef %26)
  %28 = call i32 (ptr, ...) @printf(ptr noundef @.str.44, double noundef %27)
  call void @llvm.lifetime.end.p0(i64 8, ptr %10) #8
  call void @llvm.lifetime.end.p0(i64 4, ptr %9) #8
  call void @llvm.lifetime.end.p0(i64 4, ptr %8) #8
  call void @llvm.lifetime.end.p0(i64 8, ptr %7) #8
  ret void
}