; Function Attrs: nounwind uwtable
define internal fastcc void @PrintOutput(ptr noundef %0, double noundef %1, ptr noundef %2) unnamed_addr #0 {
  %4 = alloca i64, align 8
  %5 = alloca i32, align 4
  %6 = alloca double, align 8
  call void @llvm.lifetime.start.p0(i64 8, ptr nonnull %4) #11
  call void @llvm.lifetime.start.p0(i64 4, ptr nonnull %5) #11
  call void @llvm.lifetime.start.p0(i64 8, ptr nonnull %6) #11
  %7 = call i32 @CVodeGetNumSteps(ptr noundef %0, ptr noundef nonnull %4) #11
  %8 = icmp slt i32 %7, 0
  br i1 %8, label %9, label %check_retval.exit

9:                                                ; preds = %3
  %10 = load ptr, ptr @stderr, align 8, !tbaa !9
  %11 = call i32 (ptr, ptr, ...) @fprintf(ptr noundef %10, ptr noundef nonnull @.str.68, ptr noundef nonnull @.str.39, i32 noundef %7) #14
  br label %check_retval.exit

check_retval.exit:                                ; preds = %3, %9
  %12 = call i32 @CVodeGetLastOrder(ptr noundef %0, ptr noundef nonnull %5) #11
  %13 = icmp slt i32 %12, 0
  br i1 %13, label %14, label %check_retval.exit6

14:                                               ; preds = %check_retval.exit
  %15 = load ptr, ptr @stderr, align 8, !tbaa !9
  %16 = call i32 (ptr, ptr, ...) @fprintf(ptr noundef %15, ptr noundef nonnull @.str.68, ptr noundef nonnull @.str.40, i32 noundef %12) #14
  br label %check_retval.exit6

check_retval.exit6:                               ; preds = %check_retval.exit, %14
  %17 = call i32 @CVodeGetLastStep(ptr noundef %0, ptr noundef nonnull %6) #11
  %18 = icmp slt i32 %17, 0
  br i1 %18, label %19, label %check_retval.exit8

19:                                               ; preds = %check_retval.exit6
  %20 = load ptr, ptr @stderr, align 8, !tbaa !9
  %21 = call i32 (ptr, ptr, ...) @fprintf(ptr noundef %20, ptr noundef nonnull @.str.68, ptr noundef nonnull @.str.41, i32 noundef %17) #14
  br label %check_retval.exit8

check_retval.exit8:                               ; preds = %check_retval.exit6, %19
  %22 = load i32, ptr %5, align 4, !tbaa !19
  %23 = load double, ptr %6, align 8, !tbaa !16
  %24 = load i64, ptr %4, align 8, !tbaa !24
  %25 = call i32 (ptr, ...) @printf(ptr noundef nonnull dereferenceable(1) @.str.42, double noundef %1, i32 noundef %22, double noundef %23, i64 noundef %24)
  %26 = call i32 (ptr, ...) @printf(ptr noundef nonnull dereferenceable(1) @.str.43)
  %27 = call double @N_VMaxNorm(ptr noundef %2) #11
  %28 = call i32 (ptr, ...) @printf(ptr noundef nonnull dereferenceable(1) @.str.44, double noundef %27)
  call void @llvm.lifetime.end.p0(i64 8, ptr nonnull %6) #11
  call void @llvm.lifetime.end.p0(i64 4, ptr nonnull %5) #11
  call void @llvm.lifetime.end.p0(i64 8, ptr nonnull %4) #11
  ret void
}